; ModuleID = 'source-C-CXX/44/735.c'
source_filename = "source-C-CXX/44/735.c"
target datalayout = "e-m:e-p270:32:32-p271:32:32-p272:64:64-i64:64-f80:128-n8:16:32:64-S128"
target triple = "x86_64-pc-linux-gnu"

@.str = private unnamed_addr constant [6 x i8] c"%s %s\00", align 1
@.str.1 = private unnamed_addr constant [4 x i8] c"%d\0A\00", align 1

; Function Attrs: nofree nounwind sspstrong uwtable
define dso_local i32 @main() local_unnamed_addr #0 {
  %1 = alloca [50 x i8], align 16
  %2 = alloca [50 x i8], align 16
  %3 = getelementptr inbounds [50 x i8], [50 x i8]* %1, i64 0, i64 0
  call void @llvm.lifetime.start.p0i8(i64 50, i8* nonnull %3) #4
  %4 = getelementptr inbounds [50 x i8], [50 x i8]* %2, i64 0, i64 0
  call void @llvm.lifetime.start.p0i8(i64 50, i8* nonnull %4) #4
  %5 = call i32 (i8*, ...) @__isoc99_scanf(i8* getelementptr inbounds ([6 x i8], [6 x i8]* @.str, i64 0, i64 0), i8* nonnull %3, i8* nonnull %4)
  %6 = call i64 @strlen(i8* noundef nonnull %3) #5
  %7 = trunc i64 %6 to i32
  %8 = load i8, i8* %3, align 16, !tbaa !5
  %9 = icmp sgt i32 %7, 1
  br i1 %9, label %10, label %30

10:                                               ; preds = %0
  %11 = and i64 %6, 4294967295
  br label %12

12:                                               ; preds = %10, %28
  %13 = phi i64 [ 0, %10 ], [ %29, %28 ]
  %14 = getelementptr inbounds [50 x i8], [50 x i8]* %2, i64 0, i64 %13
  %15 = load i8, i8* %14, align 1, !tbaa !5
  %16 = icmp eq i8 %15, %8
  br i1 %16, label %19, label %28

17:                                               ; preds = %19
  %18 = icmp eq i64 %27, %11
  br i1 %18, label %36, label %19, !llvm.loop !8

19:                                               ; preds = %12, %17
  %20 = phi i64 [ %27, %17 ], [ 1, %12 ]
  %21 = add nuw nsw i64 %20, %13
  %22 = getelementptr inbounds [50 x i8], [50 x i8]* %2, i64 0, i64 %21
  %23 = load i8, i8* %22, align 1, !tbaa !5
  %24 = getelementptr inbounds [50 x i8], [50 x i8]* %1, i64 0, i64 %20
  %25 = load i8, i8* %24, align 1, !tbaa !5
  %26 = icmp eq i8 %23, %25
  %27 = add nuw nsw i64 %20, 1
  br i1 %26, label %17, label %28

28:                                               ; preds = %19, %12
  %29 = add nuw nsw i64 %13, 1
  br label %12

30:                                               ; preds = %0, %30
  %31 = phi i64 [ %35, %30 ], [ 0, %0 ]
  %32 = getelementptr inbounds [50 x i8], [50 x i8]* %2, i64 0, i64 %31
  %33 = load i8, i8* %32, align 1, !tbaa !5
  %34 = icmp eq i8 %33, %8
  %35 = add nuw i64 %31, 1
  br i1 %34, label %36, label %30

36:                                               ; preds = %30, %17
  %37 = phi i64 [ %13, %17 ], [ %31, %30 ]
  %38 = trunc i64 %37 to i32
  %39 = call i32 (i8*, ...) @printf(i8* nonnull dereferenceable(1) getelementptr inbounds ([4 x i8], [4 x i8]* @.str.1, i64 0, i64 0), i32 %38)
  call void @llvm.lifetime.end.p0i8(i64 50, i8* nonnull %4) #4
  call void @llvm.lifetime.end.p0i8(i64 50, i8* nonnull %3) #4
  ret i32 0
}

; Function Attrs: argmemonly mustprogress nofree nosync nounwind willreturn
declare void @llvm.lifetime.start.p0i8(i64 immarg, i8* nocapture) #1

; Function Attrs: nofree nounwind
declare noundef i32 @__isoc99_scanf(i8* nocapture noundef readonly, ...) local_unnamed_addr #2

; Function Attrs: argmemonly mustprogress nofree nounwind readonly willreturn
declare i64 @strlen(i8* nocapture) local_unnamed_addr #3

; Function Attrs: nofree nounwind
declare noundef i32 @printf(i8* nocapture noundef readonly, ...) local_unnamed_addr #2

; Function Attrs: argmemonly mustprogress nofree nosync nounwind willreturn
declare void @llvm.lifetime.end.p0i8(i64 immarg, i8* nocapture) #1


!llvm.module.flags = !{!0, !1, !2, !3}
!llvm.ident = !{!4}

!0 = !{i32 1, !"wchar_size", i32 4}
!1 = !{i32 7, !"PIC Level", i32 2}
!2 = !{i32 7, !"PIE Level", i32 2}
!3 = !{i32 7, !"uwtable", i32 1}
!4 = !{!"clang version 13.0.0"}
!5 = !{!6, !6, i64 0}
!6 = !{!"omnipotent char", !7, i64 0}
!7 = !{!"Simple C/C++ TBAA"}
!8 = distinct !{!8, !9}
!9 = !{!"llvm.loop.mustprogress"}
